target datalayout = "e-m:e-p270:32:32-p271:32:32-p272:64:64-i64:64-i128:128-f80:128-n8:16:32:64-S128"
target triple = "x86_64-pc-linux-gnu"

%"class.google::protobuf::internal::LogMessage" = type { i32, ptr, i32, %"class.std::__cxx11::basic_string" }
%"class.std::__cxx11::basic_string" = type { %"struct.std::__cxx11::basic_string<char>::_Alloc_hider", i64, %union.anon }
%"struct.std::__cxx11::basic_string<char>::_Alloc_hider" = type { ptr }
%union.anon = type { i64, [8 x i8] }
%"class.google::protobuf::internal::LogFinisher" = type { i8 }
%"class.std::unique_ptr" = type { %"struct.std::__uniq_ptr_data" }
%"struct.std::__uniq_ptr_data" = type { %"class.std::__uniq_ptr_impl" }
%"class.std::__uniq_ptr_impl" = type { %"class.std::tuple" }
%"class.std::tuple" = type { %"struct.std::_Tuple_impl" }
%"struct.std::_Tuple_impl" = type { %"struct.std::_Head_base.3" }
%"struct.std::_Head_base.3" = type { ptr }
%"class.google::protobuf::io::CopyingOutputStreamAdaptor" = type { %"class.google::protobuf::io::ZeroCopyOutputStream", ptr, i8, i8, i64, %"class.std::unique_ptr", i32, i32 }
%"class.google::protobuf::io::ZeroCopyOutputStream" = type { ptr }
%"class.google::protobuf::io::CopyingOutputStream" = type { ptr }
%"class.google::protobuf::io::OstreamOutputStream" = type { %"class.google::protobuf::io::ZeroCopyOutputStream", %"class.google::protobuf::io::OstreamOutputStream::CopyingOstreamOutputStream", %"class.google::protobuf::io::CopyingOutputStreamAdaptor" }
%"class.google::protobuf::io::OstreamOutputStream::CopyingOstreamOutputStream" = type { %"class.google::protobuf::io::CopyingOutputStream", ptr }

@.str.2 = private unnamed_addr constant [42 x i8] c"third_party/protobuf-lite/message_lite.cc\00", align 1
@.str.5 = private unnamed_addr constant [32 x i8] c"CHECK failed: IsInitialized(): \00", align 1
@.str.6 = private unnamed_addr constant [10 x i8] c"serialize\00", align 1
@.str.10 = private unnamed_addr constant [7 x i8] c"Can't \00", align 1
@.str.11 = private unnamed_addr constant [19 x i8] c" message of type \22\00", align 1
@.str.12 = private unnamed_addr constant [42 x i8] c"\22 because it is missing required fields: \00", align 1

; Function Attrs: mustprogress uwtable
define internal void @_ZN6google8protobuf12_GLOBAL__N_126InitializationErrorMessageB5cxx11EPKcRKNS0_11MessageLiteE(ptr dead_on_unwind noalias writable sret(%"class.std::__cxx11::basic_string") align 8 %0, ptr noundef %1, ptr noundef nonnull align 8 dereferenceable(16) %2) #4 personality ptr @__gxx_personality_v0 {
  %4 = alloca ptr, align 8
  %5 = alloca ptr, align 8
  %6 = alloca ptr, align 8
  %7 = alloca i1, align 1
  %8 = alloca ptr, align 8
  %9 = alloca i32, align 4
  %10 = alloca %"class.std::__cxx11::basic_string", align 8
  %11 = alloca %"class.std::__cxx11::basic_string", align 8
  store ptr %0, ptr %4, align 8
  store ptr %1, ptr %5, align 8
  store ptr %2, ptr %6, align 8
  store i1 false, ptr %7, align 1
  call void @_ZNSt7__cxx1112basic_stringIcSt11char_traitsIcESaIcEEC1Ev(ptr noundef nonnull align 8 dereferenceable(32) %0) #3
  %12 = invoke noundef nonnull align 8 dereferenceable(32) ptr @_ZNSt7__cxx1112basic_stringIcSt11char_traitsIcESaIcEEpLEPKc(ptr noundef nonnull align 8 dereferenceable(32) %0, ptr noundef @.str.10)
          to label %13 unwind label %36

13:                                               ; preds = %3
  %14 = load ptr, ptr %5, align 8
  %15 = invoke noundef nonnull align 8 dereferenceable(32) ptr @_ZNSt7__cxx1112basic_stringIcSt11char_traitsIcESaIcEEpLEPKc(ptr noundef nonnull align 8 dereferenceable(32) %0, ptr noundef %14)
          to label %16 unwind label %36

16:                                               ; preds = %13
  %17 = invoke noundef nonnull align 8 dereferenceable(32) ptr @_ZNSt7__cxx1112basic_stringIcSt11char_traitsIcESaIcEEpLEPKc(ptr noundef nonnull align 8 dereferenceable(32) %0, ptr noundef @.str.11)
          to label %18 unwind label %36

18:                                               ; preds = %16
  %19 = load ptr, ptr %6, align 8
  %20 = load ptr, ptr %19, align 8
  %21 = getelementptr inbounds ptr, ptr %20, i64 2
  %22 = load ptr, ptr %21, align 8
  invoke void %22(ptr dead_on_unwind writable sret(%"class.std::__cxx11::basic_string") align 8 %10, ptr noundef nonnull align 8 dereferenceable(16) %19)
          to label %23 unwind label %36

23:                                               ; preds = %18
  %24 = invoke noundef nonnull align 8 dereferenceable(32) ptr @_ZNSt7__cxx1112basic_stringIcSt11char_traitsIcESaIcEEpLERKS4_(ptr noundef nonnull align 8 dereferenceable(32) %0, ptr noundef nonnull align 8 dereferenceable(32) %10)
          to label %25 unwind label %40

25:                                               ; preds = %23
  call void @_ZNSt7__cxx1112basic_stringIcSt11char_traitsIcESaIcEED1Ev(ptr noundef nonnull align 8 dereferenceable(32) %10) #3
  %26 = invoke noundef nonnull align 8 dereferenceable(32) ptr @_ZNSt7__cxx1112basic_stringIcSt11char_traitsIcESaIcEEpLEPKc(ptr noundef nonnull align 8 dereferenceable(32) %0, ptr noundef @.str.12)
          to label %27 unwind label %36

27:                                               ; preds = %25
  %28 = load ptr, ptr %6, align 8
  %29 = load ptr, ptr %28, align 8
  %30 = getelementptr inbounds ptr, ptr %29, i64 7
  %31 = load ptr, ptr %30, align 8
  invoke void %31(ptr dead_on_unwind writable sret(%"class.std::__cxx11::basic_string") align 8 %11, ptr noundef nonnull align 8 dereferenceable(16) %28)
          to label %32 unwind label %36

32:                                               ; preds = %27
  %33 = invoke noundef nonnull align 8 dereferenceable(32) ptr @_ZNSt7__cxx1112basic_stringIcSt11char_traitsIcESaIcEEpLERKS4_(ptr noundef nonnull align 8 dereferenceable(32) %0, ptr noundef nonnull align 8 dereferenceable(32) %11)
          to label %34 unwind label %44

34:                                               ; preds = %32
  call void @_ZNSt7__cxx1112basic_stringIcSt11char_traitsIcESaIcEED1Ev(ptr noundef nonnull align 8 dereferenceable(32) %11) #3
  store i1 true, ptr %7, align 1
  %35 = load i1, ptr %7, align 1
  br i1 %35, label %49, label %48

36:                                               ; preds = %27, %25, %18, %16, %13, %3
  %37 = landingpad { ptr, i32 }
          cleanup
  %38 = extractvalue { ptr, i32 } %37, 0
  store ptr %38, ptr %8, align 8
  %39 = extractvalue { ptr, i32 } %37, 1
  store i32 %39, ptr %9, align 4
  br label %50

40:                                               ; preds = %23
  %41 = landingpad { ptr, i32 }
          cleanup
  %42 = extractvalue { ptr, i32 } %41, 0
  store ptr %42, ptr %8, align 8
  %43 = extractvalue { ptr, i32 } %41, 1
  store i32 %43, ptr %9, align 4
  call void @_ZNSt7__cxx1112basic_stringIcSt11char_traitsIcESaIcEED1Ev(ptr noundef nonnull align 8 dereferenceable(32) %10) #3
  br label %50

44:                                               ; preds = %32
  %45 = landingpad { ptr, i32 }
          cleanup
  %46 = extractvalue { ptr, i32 } %45, 0
  store ptr %46, ptr %8, align 8
  %47 = extractvalue { ptr, i32 } %45, 1
  store i32 %47, ptr %9, align 4
  call void @_ZNSt7__cxx1112basic_stringIcSt11char_traitsIcESaIcEED1Ev(ptr noundef nonnull align 8 dereferenceable(32) %11) #3
  br label %50

48:                                               ; preds = %34
  call void @_ZNSt7__cxx1112basic_stringIcSt11char_traitsIcESaIcEED1Ev(ptr noundef nonnull align 8 dereferenceable(32) %0) #3
  br label %49

49:                                               ; preds = %48, %34
  ret void

50:                                               ; preds = %44, %40, %36
  call void @_ZNSt7__cxx1112basic_stringIcSt11char_traitsIcESaIcEED1Ev(ptr noundef nonnull align 8 dereferenceable(32) %0) #3
  br label %51

51:                                               ; preds = %50
  %52 = load ptr, ptr %8, align 8
  %53 = load i32, ptr %9, align 4
  %54 = insertvalue { ptr, i32 } poison, ptr %52, 0
  %55 = insertvalue { ptr, i32 } %54, i32 %53, 1
  resume { ptr, i32 } %55
}

; Function Attrs: mustprogress uwtable
define noundef zeroext i1 @_ZNK6google8protobuf11MessageLite25SerializeToZeroCopyStreamEPNS0_2io20ZeroCopyOutputStreamE(ptr noundef nonnull align 8 dereferenceable(16) %0, ptr noundef %1) #4 align 2 personality ptr @__gxx_personality_v0 {
  %3 = alloca ptr, align 8
  %4 = alloca ptr, align 8
  %5 = alloca %"class.google::protobuf::internal::LogMessage", align 8
  %6 = alloca i1, align 1
  %7 = alloca ptr, align 8
  %8 = alloca i32, align 4
  %9 = alloca %"class.std::__cxx11::basic_string", align 8
  %10 = alloca i1, align 1
  %11 = alloca %"class.google::protobuf::internal::LogFinisher", align 1
  store ptr %0, ptr %3, align 8
  store ptr %1, ptr %4, align 8
  %12 = load ptr, ptr %3, align 8
  br label %13

13:                                               ; preds = %33, %2
  br i1 false, label %14, label %49

14:                                               ; preds = %13
  %15 = load ptr, ptr %12, align 8
  %16 = getelementptr inbounds ptr, ptr %15, i64 6
  %17 = load ptr, ptr %16, align 8
  %18 = call noundef zeroext i1 %17(ptr noundef nonnull align 8 dereferenceable(16) %12)
  store i1 false, ptr %6, align 1
  store i1 false, ptr %10, align 1
  br i1 %18, label %19, label %20

19:                                               ; preds = %14
  br label %27

20:                                               ; preds = %14
  call void @_ZN6google8protobuf8internal10LogMessageC1ENS0_8LogLevelEPKci(ptr noundef nonnull align 8 dereferenceable(56) %5, i32 noundef 3, ptr noundef @.str.2, i32 noundef 402)
  store i1 true, ptr %6, align 1
  %21 = invoke noundef nonnull align 8 dereferenceable(56) ptr @_ZN6google8protobuf8internal10LogMessagelsEPKc(ptr noundef nonnull align 8 dereferenceable(56) %5, ptr noundef @.str.5)
          to label %22 unwind label %34

22:                                               ; preds = %20
  invoke void @_ZN6google8protobuf12_GLOBAL__N_126InitializationErrorMessageB5cxx11EPKcRKNS0_11MessageLiteE(ptr dead_on_unwind writable sret(%"class.std::__cxx11::basic_string") align 8 %9, ptr noundef @.str.6, ptr noundef nonnull align 8 dereferenceable(16) %12)
          to label %23 unwind label %34

23:                                               ; preds = %22
  store i1 true, ptr %10, align 1
  %24 = invoke noundef nonnull align 8 dereferenceable(56) ptr @_ZN6google8protobuf8internal10LogMessagelsERKNSt7__cxx1112basic_stringIcSt11char_traitsIcESaIcEEE(ptr noundef nonnull align 8 dereferenceable(56) %21, ptr noundef nonnull align 8 dereferenceable(32) %9)
          to label %25 unwind label %38

25:                                               ; preds = %23
  invoke void @_ZN6google8protobuf8internal11LogFinisheraSERNS1_10LogMessageE(ptr noundef nonnull align 1 dereferenceable(1) %11, ptr noundef nonnull align 8 dereferenceable(56) %24)
          to label %26 unwind label %38

26:                                               ; preds = %25
  br label %27

27:                                               ; preds = %26, %19
  %28 = load i1, ptr %10, align 1
  br i1 %28, label %29, label %30

29:                                               ; preds = %27
  call void @_ZNSt7__cxx1112basic_stringIcSt11char_traitsIcESaIcEED1Ev(ptr noundef nonnull align 8 dereferenceable(32) %9) #3
  br label %30

30:                                               ; preds = %29, %27
  %31 = load i1, ptr %6, align 1
  br i1 %31, label %32, label %33

32:                                               ; preds = %30
  call void @_ZN6google8protobuf8internal10LogMessageD1Ev(ptr noundef nonnull align 8 dereferenceable(56) %5) #3
  br label %33

33:                                               ; preds = %32, %30
  br label %13, !llvm.loop !10

34:                                               ; preds = %22, %20
  %35 = landingpad { ptr, i32 }
          cleanup
  %36 = extractvalue { ptr, i32 } %35, 0
  store ptr %36, ptr %7, align 8
  %37 = extractvalue { ptr, i32 } %35, 1
  store i32 %37, ptr %8, align 4
  br label %45

38:                                               ; preds = %25, %23
  %39 = landingpad { ptr, i32 }
          cleanup
  %40 = extractvalue { ptr, i32 } %39, 0
  store ptr %40, ptr %7, align 8
  %41 = extractvalue { ptr, i32 } %39, 1
  store i32 %41, ptr %8, align 4
  %42 = load i1, ptr %10, align 1
  br i1 %42, label %43, label %44

43:                                               ; preds = %38
  call void @_ZNSt7__cxx1112basic_stringIcSt11char_traitsIcESaIcEED1Ev(ptr noundef nonnull align 8 dereferenceable(32) %9) #3
  br label %44

44:                                               ; preds = %43, %38
  br label %45

45:                                               ; preds = %44, %34
  %46 = load i1, ptr %6, align 1
  br i1 %46, label %47, label %48

47:                                               ; preds = %45
  call void @_ZN6google8protobuf8internal10LogMessageD1Ev(ptr noundef nonnull align 8 dereferenceable(56) %5) #3
  br label %48

48:                                               ; preds = %47, %45
  br label %52

49:                                               ; preds = %13
  %50 = load ptr, ptr %4, align 8
  %51 = call noundef zeroext i1 @_ZNK6google8protobuf11MessageLite32SerializePartialToZeroCopyStreamEPNS0_2io20ZeroCopyOutputStreamE(ptr noundef nonnull align 8 dereferenceable(16) %12, ptr noundef %50)
  ret i1 %51

52:                                               ; preds = %48
  %53 = load ptr, ptr %7, align 8
  %54 = load i32, ptr %8, align 4
  %55 = insertvalue { ptr, i32 } poison, ptr %53, 0
  %56 = insertvalue { ptr, i32 } %55, i32 %54, 1
  resume { ptr, i32 } %56
}

; Function Attrs: mustprogress uwtable
define noundef zeroext i1 @_ZNK6google8protobuf11MessageLite18SerializeToOstreamEPSo(ptr noundef nonnull align 8 dereferenceable(16) %0, ptr noundef %1) #4 align 2 personality ptr @__gxx_personality_v0 {
  %3 = alloca i1, align 1
  %4 = alloca ptr, align 8
  %5 = alloca ptr, align 8
  %6 = alloca %"class.google::protobuf::io::OstreamOutputStream", align 8
  %7 = alloca ptr, align 8
  %8 = alloca i32, align 4
  %9 = alloca i32, align 4
  store ptr %0, ptr %4, align 8
  store ptr %1, ptr %5, align 8
  %10 = load ptr, ptr %4, align 8
  %11 = load ptr, ptr %5, align 8
  call void @_ZN6google8protobuf2io19OstreamOutputStreamC1EPSoi(ptr noundef nonnull align 8 dereferenceable(72) %6, ptr noundef %11, i32 noundef -1)
  %12 = invoke noundef zeroext i1 @_ZNK6google8protobuf11MessageLite25SerializeToZeroCopyStreamEPNS0_2io20ZeroCopyOutputStreamE(ptr noundef nonnull align 8 dereferenceable(16) %10, ptr noundef %6)
          to label %13 unwind label %15

13:                                               ; preds = %2
  br i1 %12, label %19, label %14

14:                                               ; preds = %13
  store i1 false, ptr %3, align 1
  store i32 1, ptr %9, align 4
  br label %20

15:                                               ; preds = %2
  %16 = landingpad { ptr, i32 }
          cleanup
  %17 = extractvalue { ptr, i32 } %16, 0
  store ptr %17, ptr %7, align 8
  %18 = extractvalue { ptr, i32 } %16, 1
  store i32 %18, ptr %8, align 4
  call void @_ZN6google8protobuf2io19OstreamOutputStreamD1Ev(ptr noundef nonnull align 8 dereferenceable(72) %6) #3
  br label %31

19:                                               ; preds = %13
  store i32 0, ptr %9, align 4
  br label %20

20:                                               ; preds = %19, %14
  call void @_ZN6google8protobuf2io19OstreamOutputStreamD1Ev(ptr noundef nonnull align 8 dereferenceable(72) %6) #3
  %21 = load i32, ptr %9, align 4
  switch i32 %21, label %36 [
    i32 0, label %22
    i32 1, label %29
  ]

22:                                               ; preds = %20
  %23 = load ptr, ptr %5, align 8
  %24 = load ptr, ptr %23, align 8
  %25 = getelementptr i8, ptr %24, i64 -24
  %26 = load i64, ptr %25, align 8
  %27 = getelementptr inbounds i8, ptr %23, i64 %26
  %28 = call noundef zeroext i1 @_ZNKSt9basic_iosIcSt11char_traitsIcEE4goodEv(ptr noundef nonnull align 8 dereferenceable(264) %27)
  store i1 %28, ptr %3, align 1
  br label %29

29:                                               ; preds = %22, %20
  %30 = load i1, ptr %3, align 1
  ret i1 %30

31:                                               ; preds = %15
  %32 = load ptr, ptr %7, align 8
  %33 = load i32, ptr %8, align 4
  %34 = insertvalue { ptr, i32 } poison, ptr %32, 0
  %35 = insertvalue { ptr, i32 } %34, i32 %33, 1
  resume { ptr, i32 } %35

36:                                               ; preds = %20
  unreachable
}